target datalayout = "e-m:e-p270:32:32-p271:32:32-p272:64:64-i64:64-i128:128-f80:128-n8:16:32:64-S128"
target triple = "x86_64-pc-linux-gnu"

%struct.redisServer = type { i32, i64, ptr, ptr, ptr, i32, i32, i32, i32, i32, ptr, ptr, ptr, ptr, ptr, i32, i32, i32, i32, i64, i32, i32, i32, i32, ptr, i32, i32, [41 x i8], i32, i64, i32, i32, i32, ptr, ptr, i32, i32, i64, ptr, ptr, ptr, ptr, [2 x i32], i32, i32, i32, i32, i32, i32, [16 x ptr], i32, ptr, ptr, i32, [8 x %struct.connListener], i32, %struct.connListener, ptr, ptr, ptr, ptr, ptr, ptr, ptr, ptr, ptr, ptr, i32, ptr, i32, ptr, [3 x %struct.pause_event], [256 x i8], ptr, i64, i32, i32, [128 x i32], i32, i32, i64, i32, i32, i32, i32, i32, i64, i64, i64, i64, i64, i64, i64, i64, i64, i64, double, i64, i64, i64, i64, i64, i64, i64, i64, i64, i64, i64, i64, i64, i64, i64, i64, i64, i64, i64, i64, i64, double, i64, i64, i64, i64, i64, ptr, i64, i64, i64, %struct.malloc_stats, i64, i64, i64, i64, i64, i64, i64, i64, i64, i64, i64, i64, double, [4 x i64], i64, i64, i64, i64, [128 x i64], [128 x i64], i64, i64, [7 x %struct.anon], i64, i64, i64, i64, i64, i64, [4 x %struct.durationStats], i32, i32, i32, i32, i32, i32, i32, i32, i32, i32, i32, i32, i64, i32, i32, i32, i32, i64, i64, i32, i32, i32, i32, i32, ptr, [3 x %struct.clientBufferLimitsConfig], i32, i32, i32, ptr, i32, i32, i32, i32, i32, i32, ptr, ptr, i32, i32, i64, i64, i64, i64, i64, i32, i32, ptr, i32, i32, i64, i64, i64, i64, i64, i32, i32, i64, i32, i32, i32, i32, i32, i32, i32, i32, ptr, i32, i64, i64, i64, i64, i32, ptr, i32, ptr, i32, i32, i32, i64, i64, i64, i64, i32, i32, i32, i32, i32, i32, ptr, i32, i32, ptr, i32, i32, i32, [2 x i32], i32, %struct.redisOpArray, i32, ptr, i32, ptr, i32, i32, i32, i32, i32, i32, i32, [41 x i8], [41 x i8], i64, i64, i64, i64, i32, i32, ptr, i64, i64, %struct.replDataBuf, i64, i64, i32, i32, i32, i32, i32, i32, i32, i32, i32, i64, ptr, i64, ptr, ptr, ptr, i32, i32, ptr, ptr, i32, i32, i32, i64, i64, i64, i64, ptr, ptr, i32, ptr, i64, i32, i32, i32, i64, i32, i32, i32, i32, ptr, i32, i32, [41 x i8], i64, i32, ptr, i32, i32, i64, i64, i32, i32, i32, i32, i32, i64, [3 x i32], i32, i32, i32, [10 x i32], ptr, ptr, i32, i64, ptr, ptr, i32, i32, i32, i32, i64, i64, i64, i64, i64, i64, i64, i64, i64, i64, i32, i32, i64, i64, i32, i64, i64, i64, i64, i64, ptr, ptr, i32, ptr, i32, i32, i32, i32, i64, i64, ptr, ptr, i32, i32, i32, i32, i32, ptr, ptr, ptr, i32, i32, i32, i32, i32, i32, i32, i64, i32, i32, i64, i32, i32, i32, i32, i32, i32, i32, i64, ptr, ptr, i64, ptr, i32, %struct.aclInfo, i32, i64, i32, i32, i32, %struct.redisTLSContextConfig, ptr, ptr, ptr, ptr, ptr, i64, i32, ptr, i32, i32, i32, i64, i32, ptr }
%struct.connListener = type { [16 x i32], i32, ptr, i32, i32, ptr, ptr }
%struct.pause_event = type { i32, i64 }
%struct.malloc_stats = type { i64, i64, i64, i64, i64, i64, i64, i64, i64, i64, i64 }
%struct.anon = type { i64, i64, [16 x i64], i32 }
%struct.durationStats = type { i64, i64, i64 }
%struct.clientBufferLimitsConfig = type { i64, i64, i64 }
%struct.redisOpArray = type { ptr, i32, i32 }
%struct.replDataBuf = type { ptr, i64, i64, i64, i64 }
%struct.aclInfo = type { i64, i64, i64, i64 }
%struct.redisTLSContextConfig = type { ptr, ptr, ptr, ptr, ptr, ptr, ptr, ptr, ptr, ptr, ptr, ptr, i32, i32, i32, i32 }
%struct.engineInfo = type { ptr, ptr, ptr }
%struct.engine = type { ptr, ptr, ptr, ptr, ptr, ptr, ptr, ptr }
%struct.client = type { i64, i64, ptr, i8, i8, i8, i8, i32, ptr, ptr, ptr, ptr, ptr, i64, i64, i32, ptr, i32, i32, ptr, i64, ptr, ptr, ptr, ptr, ptr, i32, i32, i64, ptr, i64, ptr, i64, i64, i64, i32, ptr, i64, i64, i32, i32, i32, i32, i64, i64, ptr, i64, i64, i64, i64, i64, i64, i64, i64, [41 x i8], i32, ptr, i32, i32, i64, %struct.multiState, %struct.blockingState, i64, ptr, ptr, ptr, ptr, ptr, ptr, ptr, ptr, ptr, ptr, ptr, ptr, ptr, ptr, i64, ptr, i64, i32, ptr, ptr, ptr, i64, %struct.listNode, i64, i64, i32, i64, ptr }
%struct.multiState = type { ptr, i32, i32, i32, i64, i32 }
%struct.blockingState = type { i32, i64, i32, ptr, i32, i32, i64, ptr, ptr, i64 }
%struct.listNode = type { ptr, ptr, ptr }

@engines = internal global ptr null, align 8
@server = external global %struct.redisServer, align 8
@.str.4 = private unnamed_addr constant [33 x i8] c"Same engine was registered twice\00", align 1
@engine_cache_memory = internal global i64 0, align 8

; Function Attrs: nounwind uwtable
define dso_local i32 @functionsRegisterEngine(ptr noundef %0, ptr noundef %1) #1 {
  %3 = alloca i32, align 4
  %4 = alloca ptr, align 8
  %5 = alloca ptr, align 8
  %6 = alloca ptr, align 8
  %7 = alloca i32, align 4
  %8 = alloca ptr, align 8
  %9 = alloca ptr, align 8
  %10 = alloca %struct.engineInfo, align 8
  store ptr %0, ptr %4, align 8, !tbaa !57
  store ptr %1, ptr %5, align 8, !tbaa !35
  call void @llvm.lifetime.start.p0(i64 8, ptr %6) #11
  %11 = load ptr, ptr %4, align 8, !tbaa !57
  %12 = call ptr @sdsnew(ptr noundef %11)
  store ptr %12, ptr %6, align 8, !tbaa !57
  %13 = load ptr, ptr @engines, align 8, !tbaa !5
  %14 = load ptr, ptr %6, align 8, !tbaa !57
  %15 = call ptr @dictFetchValue(ptr noundef %13, ptr noundef %14)
  %16 = icmp ne ptr %15, null
  br i1 %16, label %17, label %26

17:                                               ; preds = %2
  br label %18

18:                                               ; preds = %17
  %19 = load i32, ptr getelementptr inbounds nuw (%struct.redisServer, ptr @server, i32 0, i32 159), align 8, !tbaa !67
  %20 = icmp slt i32 3, %19
  br i1 %20, label %21, label %22

21:                                               ; preds = %18
  br label %24

22:                                               ; preds = %18
  call void (i32, ptr, ...) @_serverLog(i32 noundef 3, ptr noundef @.str.4)
  br label %23

23:                                               ; preds = %22
  br label %24

24:                                               ; preds = %23, %21
  %25 = load ptr, ptr %6, align 8, !tbaa !57
  call void @sdsfree(ptr noundef %25)
  store i32 -1, ptr %3, align 4
  store i32 1, ptr %7, align 4
  br label %64

26:                                               ; preds = %2
  call void @llvm.lifetime.start.p0(i64 8, ptr %8) #11
  %27 = call ptr @createClient(ptr noundef null)
  store ptr %27, ptr %8, align 8, !tbaa !91
  %28 = load ptr, ptr %8, align 8, !tbaa !91
  %29 = getelementptr inbounds nuw %struct.client, ptr %28, i32 0, i32 1
  %30 = load i64, ptr %29, align 8, !tbaa !92
  %31 = or i64 %30, 2199023255808
  store i64 %31, ptr %29, align 8, !tbaa !92
  call void @llvm.lifetime.start.p0(i64 8, ptr %9) #11
  %32 = call noalias ptr @zmalloc(i64 noundef 24) #12
  store ptr %32, ptr %9, align 8, !tbaa !11
  %33 = load ptr, ptr %9, align 8, !tbaa !11
  %34 = getelementptr inbounds nuw %struct.engineInfo, ptr %10, i32 0, i32 0
  %35 = load ptr, ptr %6, align 8, !tbaa !57
  store ptr %35, ptr %34, align 8, !tbaa !18
  %36 = getelementptr inbounds nuw %struct.engineInfo, ptr %10, i32 0, i32 1
  %37 = load ptr, ptr %5, align 8, !tbaa !35
  store ptr %37, ptr %36, align 8, !tbaa !19
  %38 = getelementptr inbounds nuw %struct.engineInfo, ptr %10, i32 0, i32 2
  %39 = load ptr, ptr %8, align 8, !tbaa !91
  store ptr %39, ptr %38, align 8, !tbaa !13
  call void @llvm.memcpy.p0.p0.i64(ptr align 8 %33, ptr align 8 %10, i64 24, i1 false), !tbaa.struct !102
  %40 = load ptr, ptr @engines, align 8, !tbaa !5
  %41 = load ptr, ptr %6, align 8, !tbaa !57
  %42 = load ptr, ptr %9, align 8, !tbaa !11
  %43 = call i32 @dictAdd(ptr noundef %40, ptr noundef %41, ptr noundef %42)
  %44 = load ptr, ptr %9, align 8, !tbaa !11
  %45 = call i64 @je_malloc_usable_size(ptr noundef %44) #11
  %46 = load ptr, ptr %9, align 8, !tbaa !11
  %47 = getelementptr inbounds nuw %struct.engineInfo, ptr %46, i32 0, i32 0
  %48 = load ptr, ptr %47, align 8, !tbaa !18
  %49 = call i64 @sdsZmallocSize(ptr noundef %48)
  %50 = add i64 %45, %49
  %51 = load ptr, ptr %5, align 8, !tbaa !35
  %52 = call i64 @je_malloc_usable_size(ptr noundef %51) #11
  %53 = add i64 %50, %52
  %54 = load ptr, ptr %5, align 8, !tbaa !35
  %55 = getelementptr inbounds nuw %struct.engine, ptr %54, i32 0, i32 5
  %56 = load ptr, ptr %55, align 8, !tbaa !103
  %57 = load ptr, ptr %5, align 8, !tbaa !35
  %58 = getelementptr inbounds nuw %struct.engine, ptr %57, i32 0, i32 0
  %59 = load ptr, ptr %58, align 8, !tbaa !22
  %60 = call i64 %56(ptr noundef %59)
  %61 = add i64 %53, %60
  %62 = load i64, ptr @engine_cache_memory, align 8, !tbaa !59
  %63 = add i64 %62, %61
  store i64 %63, ptr @engine_cache_memory, align 8, !tbaa !59
  store i32 0, ptr %3, align 4
  store i32 1, ptr %7, align 4
  call void @llvm.lifetime.end.p0(i64 8, ptr %9) #11
  call void @llvm.lifetime.end.p0(i64 8, ptr %8) #11
  br label %64

64:                                               ; preds = %26, %24
  call void @llvm.lifetime.end.p0(i64 8, ptr %6) #11
  %65 = load i32, ptr %3, align 4
  ret i32 %65
}