; Function Attrs: nounwind uwtable
define dso_local range(i32 -1, 1) i32 @functionsRegisterEngine(ptr noundef %0, ptr noundef %1) local_unnamed_addr #1 {
  %3 = tail call ptr @sdsnew(ptr noundef %0) #12
  %4 = load ptr, ptr @engines, align 8, !tbaa !42
  %5 = tail call ptr @dictFetchValue(ptr noundef %4, ptr noundef %3) #12
  %.not = icmp eq ptr %5, null
  br i1 %.not, label %11, label %6

6:                                                ; preds = %2
  %7 = load i32, ptr getelementptr inbounds nuw (i8, ptr @server, i64 6288), align 8, !tbaa !55
  %8 = icmp sgt i32 %7, 3
  br i1 %8, label %10, label %9

9:                                                ; preds = %6
  tail call void (i32, ptr, ...) @_serverLog(i32 noundef 3, ptr noundef nonnull @.str.4) #12
  br label %10

10:                                               ; preds = %6, %9
  tail call void @sdsfree(ptr noundef %3) #12
  br label %32

11:                                               ; preds = %2
  %12 = tail call ptr @createClient(ptr noundef null) #12
  %13 = getelementptr inbounds nuw i8, ptr %12, i64 8
  %14 = load i64, ptr %13, align 8, !tbaa !80
  %15 = or i64 %14, 2199023255808
  store i64 %15, ptr %13, align 8, !tbaa !80
  %16 = tail call noalias dereferenceable_or_null(24) ptr @zmalloc(i64 noundef 24) #13
  store ptr %3, ptr %16, align 8, !tbaa !51
  %.sroa.2.0..sroa_idx = getelementptr inbounds nuw i8, ptr %16, i64 8
  store ptr %1, ptr %.sroa.2.0..sroa_idx, align 8, !tbaa !91
  %.sroa.3.0..sroa_idx = getelementptr inbounds nuw i8, ptr %16, i64 16
  store ptr %12, ptr %.sroa.3.0..sroa_idx, align 8, !tbaa !92
  %17 = load ptr, ptr @engines, align 8, !tbaa !42
  %18 = tail call i32 @dictAdd(ptr noundef %17, ptr noundef %3, ptr noundef nonnull %16) #12
  %19 = tail call i64 @je_malloc_usable_size(ptr noundef nonnull %16) #12
  %20 = load ptr, ptr %16, align 8, !tbaa !13
  %21 = tail call i64 @sdsZmallocSize(ptr noundef %20) #12
  %22 = add i64 %21, %19
  %23 = tail call i64 @je_malloc_usable_size(ptr noundef %1) #12
  %24 = add i64 %22, %23
  %25 = getelementptr inbounds nuw i8, ptr %1, i64 40
  %26 = load ptr, ptr %25, align 8, !tbaa !93
  %27 = load ptr, ptr %1, align 8, !tbaa !17
  %28 = tail call i64 %26(ptr noundef %27) #12
  %29 = add i64 %24, %28
  %30 = load i64, ptr @engine_cache_memory, align 8, !tbaa !49
  %31 = add i64 %29, %30
  store i64 %31, ptr @engine_cache_memory, align 8, !tbaa !49
  br label %32

32:                                               ; preds = %11, %10
  %.0 = phi i32 [ -1, %10 ], [ 0, %11 ]
  ret i32 %.0
}